target datalayout = "e-m:e-p270:32:32-p271:32:32-p272:64:64-i64:64-i128:128-f80:128-n8:16:32:64-S128"
target triple = "x86_64-pc-linux-gnu"

%struct.PJconsts = type { ptr, ptr, ptr, ptr, ptr, ptr, ptr, ptr, ptr, ptr, ptr, ptr, i32, ptr, ptr, ptr, ptr, ptr, ptr, ptr, ptr, double, double, double, double, double, double, double, double, double, double, double, double, double, double, double, double, double, double, double, double, double, double, i32, i32, i32, i32, i32, i32, i32, i32, i32, i32, i32, ptr, ptr, ptr, ptr, ptr, ptr, double, double, double, double, double, double, double, double, double, double, double, i32, [7 x double], i32, ptr, ptr, double, double, i32, [4 x i8], %"class.std::shared_ptr", i8, double, i8, %"class.std::__cxx11::basic_string", %"class.std::__cxx11::basic_string", %"class.std::__cxx11::basic_string", i8, %"class.std::vector", i32, %"class.std::vector.3", i32, i8, i8, i8, ptr }
%"class.std::shared_ptr" = type { %"class.std::__shared_ptr" }
%"class.std::__shared_ptr" = type { ptr, %"class.std::__shared_count" }
%"class.std::__shared_count" = type { ptr }
%"class.std::__cxx11::basic_string" = type { %"struct.std::__cxx11::basic_string<char>::_Alloc_hider", i64, %union.anon }
%"struct.std::__cxx11::basic_string<char>::_Alloc_hider" = type { ptr }
%union.anon = type { i64, [8 x i8] }
%"class.std::vector" = type { %"struct.std::_Vector_base" }
%"struct.std::_Vector_base" = type { %"struct.std::_Vector_base<osgeo::proj::operation::GridDescription, std::allocator<osgeo::proj::operation::GridDescription>>::_Vector_impl" }
%"struct.std::_Vector_base<osgeo::proj::operation::GridDescription, std::allocator<osgeo::proj::operation::GridDescription>>::_Vector_impl" = type { %"struct.std::_Vector_base<osgeo::proj::operation::GridDescription, std::allocator<osgeo::proj::operation::GridDescription>>::_Vector_impl_data" }
%"struct.std::_Vector_base<osgeo::proj::operation::GridDescription, std::allocator<osgeo::proj::operation::GridDescription>>::_Vector_impl_data" = type { ptr, ptr, ptr }
%"class.std::vector.3" = type { %"struct.std::_Vector_base.4" }
%"struct.std::_Vector_base.4" = type { %"struct.std::_Vector_base<PJCoordOperation, std::allocator<PJCoordOperation>>::_Vector_impl" }
%"struct.std::_Vector_base<PJCoordOperation, std::allocator<PJCoordOperation>>::_Vector_impl" = type { %"struct.std::_Vector_base<PJCoordOperation, std::allocator<PJCoordOperation>>::_Vector_impl_data" }
%"struct.std::_Vector_base<PJCoordOperation, std::allocator<PJCoordOperation>>::_Vector_impl_data" = type { ptr, ptr, ptr }
%union.PROJVALUE = type { double }
%"struct.(anonymous namespace)::pj_opaque_affine" = type { double, double, double, double, %"struct.(anonymous namespace)::pj_affine_coeffs", %"struct.(anonymous namespace)::pj_affine_coeffs" }
%"struct.(anonymous namespace)::pj_affine_coeffs" = type { double, double, double, double, double, double, double, double, double, double }

@.str.20 = private unnamed_addr constant [6 x i8] c"ddlon\00", align 1
@.str.21 = private unnamed_addr constant [6 x i8] c"ddlat\00", align 1
@.str.22 = private unnamed_addr constant [4 x i8] c"ddh\00", align 1

; Function Attrs: mustprogress nounwind uwtable
define internal noundef ptr @_ZL5initQv() #3 {
  %1 = alloca ptr, align 8
  %2 = alloca ptr, align 8
  %3 = alloca i32, align 4
  call void @llvm.lifetime.start.p0(i64 8, ptr %2) #8
  %4 = call noalias ptr @calloc(i64 noundef 1, i64 noundef 192) #9
  store ptr %4, ptr %2, align 8, !tbaa !41
  %5 = load ptr, ptr %2, align 8, !tbaa !41
  %6 = icmp eq ptr null, %5
  br i1 %6, label %7, label %8

7:                                                ; preds = %0
  store ptr null, ptr %1, align 8
  store i32 1, ptr %3, align 4
  br label %34

8:                                                ; preds = %0
  %9 = load ptr, ptr %2, align 8, !tbaa !41
  %10 = getelementptr inbounds nuw %"struct.(anonymous namespace)::pj_opaque_affine", ptr %9, i32 0, i32 4
  %11 = getelementptr inbounds nuw %"struct.(anonymous namespace)::pj_affine_coeffs", ptr %10, i32 0, i32 0
  store double 1.000000e+00, ptr %11, align 8, !tbaa !59
  %12 = load ptr, ptr %2, align 8, !tbaa !41
  %13 = getelementptr inbounds nuw %"struct.(anonymous namespace)::pj_opaque_affine", ptr %12, i32 0, i32 4
  %14 = getelementptr inbounds nuw %"struct.(anonymous namespace)::pj_affine_coeffs", ptr %13, i32 0, i32 4
  store double 1.000000e+00, ptr %14, align 8, !tbaa !63
  %15 = load ptr, ptr %2, align 8, !tbaa !41
  %16 = getelementptr inbounds nuw %"struct.(anonymous namespace)::pj_opaque_affine", ptr %15, i32 0, i32 4
  %17 = getelementptr inbounds nuw %"struct.(anonymous namespace)::pj_affine_coeffs", ptr %16, i32 0, i32 8
  store double 1.000000e+00, ptr %17, align 8, !tbaa !67
  %18 = load ptr, ptr %2, align 8, !tbaa !41
  %19 = getelementptr inbounds nuw %"struct.(anonymous namespace)::pj_opaque_affine", ptr %18, i32 0, i32 4
  %20 = getelementptr inbounds nuw %"struct.(anonymous namespace)::pj_affine_coeffs", ptr %19, i32 0, i32 9
  store double 1.000000e+00, ptr %20, align 8, !tbaa !68
  %21 = load ptr, ptr %2, align 8, !tbaa !41
  %22 = getelementptr inbounds nuw %"struct.(anonymous namespace)::pj_opaque_affine", ptr %21, i32 0, i32 5
  %23 = getelementptr inbounds nuw %"struct.(anonymous namespace)::pj_affine_coeffs", ptr %22, i32 0, i32 0
  store double 1.000000e+00, ptr %23, align 8, !tbaa !69
  %24 = load ptr, ptr %2, align 8, !tbaa !41
  %25 = getelementptr inbounds nuw %"struct.(anonymous namespace)::pj_opaque_affine", ptr %24, i32 0, i32 5
  %26 = getelementptr inbounds nuw %"struct.(anonymous namespace)::pj_affine_coeffs", ptr %25, i32 0, i32 4
  store double 1.000000e+00, ptr %26, align 8, !tbaa !70
  %27 = load ptr, ptr %2, align 8, !tbaa !41
  %28 = getelementptr inbounds nuw %"struct.(anonymous namespace)::pj_opaque_affine", ptr %27, i32 0, i32 5
  %29 = getelementptr inbounds nuw %"struct.(anonymous namespace)::pj_affine_coeffs", ptr %28, i32 0, i32 8
  store double 1.000000e+00, ptr %29, align 8, !tbaa !71
  %30 = load ptr, ptr %2, align 8, !tbaa !41
  %31 = getelementptr inbounds nuw %"struct.(anonymous namespace)::pj_opaque_affine", ptr %30, i32 0, i32 5
  %32 = getelementptr inbounds nuw %"struct.(anonymous namespace)::pj_affine_coeffs", ptr %31, i32 0, i32 9
  store double 1.000000e+00, ptr %32, align 8, !tbaa !72
  %33 = load ptr, ptr %2, align 8, !tbaa !41
  store ptr %33, ptr %1, align 8
  store i32 1, ptr %3, align 4
  br label %34

34:                                               ; preds = %8, %7
  call void @llvm.lifetime.end.p0(i64 8, ptr %2) #8
  %35 = load ptr, ptr %1, align 8
  ret ptr %35
}

; Function Attrs: mustprogress uwtable
define hidden noundef ptr @_Z39pj_projection_specific_setup_geogoffsetP8PJconsts(ptr noundef %0) #0 {
  %2 = alloca ptr, align 8
  %3 = alloca ptr, align 8
  %4 = alloca ptr, align 8
  %5 = alloca i32, align 4
  %6 = alloca %union.PROJVALUE, align 8
  %7 = alloca %union.PROJVALUE, align 8
  %8 = alloca %union.PROJVALUE, align 8
  store ptr %0, ptr %3, align 8, !tbaa !3
  call void @llvm.lifetime.start.p0(i64 8, ptr %4) #8
  %9 = call noundef ptr @_ZL5initQv()
  store ptr %9, ptr %4, align 8, !tbaa !41
  %10 = load ptr, ptr %4, align 8, !tbaa !41
  %11 = icmp eq ptr null, %10
  br i1 %11, label %12, label %15

12:                                               ; preds = %1
  %13 = load ptr, ptr %3, align 8, !tbaa !3
  %14 = call noundef ptr @_Z21pj_default_destructorP8PJconstsi(ptr noundef %13, i32 noundef 4096)
  store ptr %14, ptr %2, align 8
  store i32 1, ptr %5, align 4
  br label %71

15:                                               ; preds = %1
  %16 = load ptr, ptr %4, align 8, !tbaa !41
  %17 = load ptr, ptr %3, align 8, !tbaa !3
  %18 = getelementptr inbounds nuw %struct.PJconsts, ptr %17, i32 0, i32 11
  store ptr %16, ptr %18, align 8, !tbaa !43
  %19 = load ptr, ptr %3, align 8, !tbaa !3
  %20 = getelementptr inbounds nuw %struct.PJconsts, ptr %19, i32 0, i32 17
  store ptr @_ZL10forward_4dR8PJ_COORDP8PJconsts, ptr %20, align 8, !tbaa !44
  %21 = load ptr, ptr %3, align 8, !tbaa !3
  %22 = getelementptr inbounds nuw %struct.PJconsts, ptr %21, i32 0, i32 18
  store ptr @_ZL10reverse_4dR8PJ_COORDP8PJconsts, ptr %22, align 8, !tbaa !45
  %23 = load ptr, ptr %3, align 8, !tbaa !3
  %24 = getelementptr inbounds nuw %struct.PJconsts, ptr %23, i32 0, i32 15
  store ptr @_ZL10forward_3d6PJ_LPZP8PJconsts, ptr %24, align 8, !tbaa !46
  %25 = load ptr, ptr %3, align 8, !tbaa !3
  %26 = getelementptr inbounds nuw %struct.PJconsts, ptr %25, i32 0, i32 16
  store ptr @_ZL10reverse_3d6PJ_XYZP8PJconsts, ptr %26, align 8, !tbaa !47
  %27 = load ptr, ptr %3, align 8, !tbaa !3
  %28 = getelementptr inbounds nuw %struct.PJconsts, ptr %27, i32 0, i32 13
  store ptr @_ZL10forward_2d5PJ_LPP8PJconsts, ptr %28, align 8, !tbaa !48
  %29 = load ptr, ptr %3, align 8, !tbaa !3
  %30 = getelementptr inbounds nuw %struct.PJconsts, ptr %29, i32 0, i32 14
  store ptr @_ZL10reverse_2d5PJ_XYP8PJconsts, ptr %30, align 8, !tbaa !49
  %31 = load ptr, ptr %3, align 8, !tbaa !3
  %32 = getelementptr inbounds nuw %struct.PJconsts, ptr %31, i32 0, i32 52
  store i32 4, ptr %32, align 4, !tbaa !39
  %33 = load ptr, ptr %3, align 8, !tbaa !3
  %34 = getelementptr inbounds nuw %struct.PJconsts, ptr %33, i32 0, i32 53
  store i32 4, ptr %34, align 8, !tbaa !40
  call void @llvm.lifetime.start.p0(i64 8, ptr %6) #8
  %35 = load ptr, ptr %3, align 8, !tbaa !3
  %36 = getelementptr inbounds nuw %struct.PJconsts, ptr %35, i32 0, i32 0
  %37 = load ptr, ptr %36, align 8, !tbaa !50
  %38 = load ptr, ptr %3, align 8, !tbaa !3
  %39 = getelementptr inbounds nuw %struct.PJconsts, ptr %38, i32 0, i32 3
  %40 = load ptr, ptr %39, align 8, !tbaa !51
  %41 = call i64 @_Z8pj_paramP6pj_ctxP8ARG_listPKc(ptr noundef %37, ptr noundef %40, ptr noundef @.str.20)
  %42 = getelementptr inbounds nuw %union.PROJVALUE, ptr %6, i32 0, i32 0
  store i64 %41, ptr %42, align 8
  %43 = load double, ptr %6, align 8, !tbaa !52
  %44 = fmul double %43, 0x3ED455A5B2FF8F9D
  %45 = load ptr, ptr %4, align 8, !tbaa !41
  %46 = getelementptr inbounds nuw %"struct.(anonymous namespace)::pj_opaque_affine", ptr %45, i32 0, i32 0
  store double %44, ptr %46, align 8, !tbaa !53
  call void @llvm.lifetime.end.p0(i64 8, ptr %6) #8
  call void @llvm.lifetime.start.p0(i64 8, ptr %7) #8
  %47 = load ptr, ptr %3, align 8, !tbaa !3
  %48 = getelementptr inbounds nuw %struct.PJconsts, ptr %47, i32 0, i32 0
  %49 = load ptr, ptr %48, align 8, !tbaa !50
  %50 = load ptr, ptr %3, align 8, !tbaa !3
  %51 = getelementptr inbounds nuw %struct.PJconsts, ptr %50, i32 0, i32 3
  %52 = load ptr, ptr %51, align 8, !tbaa !51
  %53 = call i64 @_Z8pj_paramP6pj_ctxP8ARG_listPKc(ptr noundef %49, ptr noundef %52, ptr noundef @.str.21)
  %54 = getelementptr inbounds nuw %union.PROJVALUE, ptr %7, i32 0, i32 0
  store i64 %53, ptr %54, align 8
  %55 = load double, ptr %7, align 8, !tbaa !52
  %56 = fmul double %55, 0x3ED455A5B2FF8F9D
  %57 = load ptr, ptr %4, align 8, !tbaa !41
  %58 = getelementptr inbounds nuw %"struct.(anonymous namespace)::pj_opaque_affine", ptr %57, i32 0, i32 1
  store double %56, ptr %58, align 8, !tbaa !56
  call void @llvm.lifetime.end.p0(i64 8, ptr %7) #8
  call void @llvm.lifetime.start.p0(i64 8, ptr %8) #8
  %59 = load ptr, ptr %3, align 8, !tbaa !3
  %60 = getelementptr inbounds nuw %struct.PJconsts, ptr %59, i32 0, i32 0
  %61 = load ptr, ptr %60, align 8, !tbaa !50
  %62 = load ptr, ptr %3, align 8, !tbaa !3
  %63 = getelementptr inbounds nuw %struct.PJconsts, ptr %62, i32 0, i32 3
  %64 = load ptr, ptr %63, align 8, !tbaa !51
  %65 = call i64 @_Z8pj_paramP6pj_ctxP8ARG_listPKc(ptr noundef %61, ptr noundef %64, ptr noundef @.str.22)
  %66 = getelementptr inbounds nuw %union.PROJVALUE, ptr %8, i32 0, i32 0
  store i64 %65, ptr %66, align 8
  %67 = load double, ptr %8, align 8, !tbaa !52
  %68 = load ptr, ptr %4, align 8, !tbaa !41
  %69 = getelementptr inbounds nuw %"struct.(anonymous namespace)::pj_opaque_affine", ptr %68, i32 0, i32 2
  store double %67, ptr %69, align 8, !tbaa !57
  call void @llvm.lifetime.end.p0(i64 8, ptr %8) #8
  %70 = load ptr, ptr %3, align 8, !tbaa !3
  store ptr %70, ptr %2, align 8
  store i32 1, ptr %5, align 4
  br label %71

71:                                               ; preds = %15, %12
  call void @llvm.lifetime.end.p0(i64 8, ptr %4) #8
  %72 = load ptr, ptr %2, align 8
  ret ptr %72
}