; Function Attrs: mustprogress uwtable
define hidden noundef ptr @_Z39pj_projection_specific_setup_geogoffsetP8PJconsts(ptr noundef %0) local_unnamed_addr #0 {
  %2 = tail call noalias dereferenceable_or_null(192) ptr @calloc(i64 noundef 1, i64 noundef 192) #6
  %3 = icmp eq ptr %2, null
  br i1 %3, label %4, label %6

4:                                                ; preds = %1
  %5 = tail call noundef ptr @_Z21pj_default_destructorP8PJconstsi(ptr noundef %0, i32 noundef 4096)
  br label %40

6:                                                ; preds = %1
  %7 = getelementptr inbounds nuw i8, ptr %2, i64 32
  store double 1.000000e+00, ptr %7, align 8, !tbaa !40
  %8 = getelementptr inbounds nuw i8, ptr %2, i64 64
  store double 1.000000e+00, ptr %8, align 8, !tbaa !43
  %9 = getelementptr inbounds nuw i8, ptr %2, i64 96
  store double 1.000000e+00, ptr %9, align 8, !tbaa !44
  %10 = getelementptr inbounds nuw i8, ptr %2, i64 104
  store double 1.000000e+00, ptr %10, align 8, !tbaa !45
  %11 = getelementptr inbounds nuw i8, ptr %2, i64 112
  store double 1.000000e+00, ptr %11, align 8, !tbaa !46
  %12 = getelementptr inbounds nuw i8, ptr %2, i64 144
  store double 1.000000e+00, ptr %12, align 8, !tbaa !47
  %13 = getelementptr inbounds nuw i8, ptr %2, i64 176
  store double 1.000000e+00, ptr %13, align 8, !tbaa !48
  %14 = getelementptr inbounds nuw i8, ptr %2, i64 184
  store double 1.000000e+00, ptr %14, align 8, !tbaa !49
  %15 = getelementptr inbounds nuw i8, ptr %0, i64 88
  store ptr %2, ptr %15, align 8, !tbaa !50
  %16 = getelementptr inbounds nuw i8, ptr %0, i64 136
  store ptr @_ZL10forward_4dR8PJ_COORDP8PJconsts, ptr %16, align 8, !tbaa !51
  %17 = getelementptr inbounds nuw i8, ptr %0, i64 144
  store ptr @_ZL10reverse_4dR8PJ_COORDP8PJconsts, ptr %17, align 8, !tbaa !52
  %18 = getelementptr inbounds nuw i8, ptr %0, i64 120
  store ptr @_ZL10forward_3d6PJ_LPZP8PJconsts, ptr %18, align 8, !tbaa !53
  %19 = getelementptr inbounds nuw i8, ptr %0, i64 128
  store ptr @_ZL10reverse_3d6PJ_XYZP8PJconsts, ptr %19, align 8, !tbaa !54
  %20 = getelementptr inbounds nuw i8, ptr %0, i64 104
  store ptr @_ZL10forward_2d5PJ_LPP8PJconsts, ptr %20, align 8, !tbaa !55
  %21 = getelementptr inbounds nuw i8, ptr %0, i64 112
  store ptr @_ZL10reverse_2d5PJ_XYP8PJconsts, ptr %21, align 8, !tbaa !56
  %22 = getelementptr inbounds nuw i8, ptr %0, i64 380
  store i32 4, ptr %22, align 4, !tbaa !38
  %23 = getelementptr inbounds nuw i8, ptr %0, i64 384
  store i32 4, ptr %23, align 8, !tbaa !39
  %24 = load ptr, ptr %0, align 8, !tbaa !57
  %25 = getelementptr inbounds nuw i8, ptr %0, i64 24
  %26 = load ptr, ptr %25, align 8, !tbaa !58
  %27 = tail call i64 @_Z8pj_paramP6pj_ctxP8ARG_listPKc(ptr noundef %24, ptr noundef %26, ptr noundef nonnull @.str.20)
  %28 = bitcast i64 %27 to double
  %29 = fmul double %28, 0x3ED455A5B2FF8F9D
  store double %29, ptr %2, align 8, !tbaa !59
  %30 = load ptr, ptr %0, align 8, !tbaa !57
  %31 = load ptr, ptr %25, align 8, !tbaa !58
  %32 = tail call i64 @_Z8pj_paramP6pj_ctxP8ARG_listPKc(ptr noundef %30, ptr noundef %31, ptr noundef nonnull @.str.21)
  %33 = bitcast i64 %32 to double
  %34 = fmul double %33, 0x3ED455A5B2FF8F9D
  %35 = getelementptr inbounds nuw i8, ptr %2, i64 8
  store double %34, ptr %35, align 8, !tbaa !60
  %36 = load ptr, ptr %0, align 8, !tbaa !57
  %37 = load ptr, ptr %25, align 8, !tbaa !58
  %38 = tail call i64 @_Z8pj_paramP6pj_ctxP8ARG_listPKc(ptr noundef %36, ptr noundef %37, ptr noundef nonnull @.str.22)
  %39 = getelementptr inbounds nuw i8, ptr %2, i64 16
  store i64 %38, ptr %39, align 8, !tbaa !61
  br label %40

40:                                               ; preds = %6, %4
  %.0 = phi ptr [ %5, %4 ], [ %0, %6 ]
  ret ptr %.0
}